target datalayout = "e-m:e-p270:32:32-p271:32:32-p272:64:64-i64:64-i128:128-f80:128-n8:16:32:64-S128"
target triple = "x86_64-pc-linux-gnu"

@stderr = external global ptr, align 8
@.str = private unnamed_addr constant [12 x i8] c"%s (%s:%d)\0A\00", align 1
@.str.1 = private unnamed_addr constant [103 x i8] c"generated/home/dtcxzyw/WorkSpace/Projects/compilers/llvm-opt-benchmark/bench/libzmq/libzmq/src/tcp.cpp\00", align 1

; Function Attrs: mustprogress uwtable
define noundef i32 @_ZN3zmq9tcp_writeEiPKvm(i32 noundef %0, ptr noundef %1, i64 noundef %2) #0 {
  %4 = alloca i32, align 4
  %5 = alloca i32, align 4
  %6 = alloca ptr, align 8
  %7 = alloca i64, align 8
  %8 = alloca i64, align 8
  %9 = alloca i32, align 4
  %10 = alloca ptr, align 8
  store i32 %0, ptr %5, align 4, !tbaa !3
  store ptr %1, ptr %6, align 8, !tbaa !7
  store i64 %2, ptr %7, align 8, !tbaa !9
  call void @llvm.lifetime.start.p0(i64 8, ptr %8) #7
  %11 = load i32, ptr %5, align 4, !tbaa !3
  %12 = load ptr, ptr %6, align 8, !tbaa !7
  %13 = load i64, ptr %7, align 8, !tbaa !9
  %14 = call i64 @send(i32 noundef %11, ptr noundef %12, i64 noundef %13, i32 noundef 0)
  store i64 %14, ptr %8, align 8, !tbaa !9
  %15 = load i64, ptr %8, align 8, !tbaa !9
  %16 = icmp eq i64 %15, -1
  br i1 %16, label %17, label %30

17:                                               ; preds = %3
  %18 = call ptr @__errno_location() #8
  %19 = load i32, ptr %18, align 4, !tbaa !3
  %20 = icmp eq i32 %19, 11
  br i1 %20, label %29, label %21

21:                                               ; preds = %17
  %22 = call ptr @__errno_location() #8
  %23 = load i32, ptr %22, align 4, !tbaa !3
  %24 = icmp eq i32 %23, 11
  br i1 %24, label %29, label %25

25:                                               ; preds = %21
  %26 = call ptr @__errno_location() #8
  %27 = load i32, ptr %26, align 4, !tbaa !3
  %28 = icmp eq i32 %27, 4
  br i1 %28, label %29, label %30

29:                                               ; preds = %25, %21, %17
  store i32 0, ptr %4, align 4
  store i32 1, ptr %9, align 4
  br label %92

30:                                               ; preds = %25, %3
  %31 = load i64, ptr %8, align 8, !tbaa !9
  %32 = icmp eq i64 %31, -1
  br i1 %32, label %33, label %89

33:                                               ; preds = %30
  br label %34

34:                                               ; preds = %33
  %35 = call ptr @__errno_location() #8
  %36 = load i32, ptr %35, align 4, !tbaa !3
  %37 = icmp ne i32 %36, 13
  br i1 %37, label %38, label %70

38:                                               ; preds = %34
  %39 = call ptr @__errno_location() #8
  %40 = load i32, ptr %39, align 4, !tbaa !3
  %41 = icmp ne i32 %40, 9
  br i1 %41, label %42, label %70

42:                                               ; preds = %38
  %43 = call ptr @__errno_location() #8
  %44 = load i32, ptr %43, align 4, !tbaa !3
  %45 = icmp ne i32 %44, 89
  br i1 %45, label %46, label %70

46:                                               ; preds = %42
  %47 = call ptr @__errno_location() #8
  %48 = load i32, ptr %47, align 4, !tbaa !3
  %49 = icmp ne i32 %48, 14
  br i1 %49, label %50, label %70

50:                                               ; preds = %46
  %51 = call ptr @__errno_location() #8
  %52 = load i32, ptr %51, align 4, !tbaa !3
  %53 = icmp ne i32 %52, 106
  br i1 %53, label %54, label %70

54:                                               ; preds = %50
  %55 = call ptr @__errno_location() #8
  %56 = load i32, ptr %55, align 4, !tbaa !3
  %57 = icmp ne i32 %56, 90
  br i1 %57, label %58, label %70

58:                                               ; preds = %54
  %59 = call ptr @__errno_location() #8
  %60 = load i32, ptr %59, align 4, !tbaa !3
  %61 = icmp ne i32 %60, 12
  br i1 %61, label %62, label %70

62:                                               ; preds = %58
  %63 = call ptr @__errno_location() #8
  %64 = load i32, ptr %63, align 4, !tbaa !3
  %65 = icmp ne i32 %64, 88
  br i1 %65, label %66, label %70

66:                                               ; preds = %62
  %67 = call ptr @__errno_location() #8
  %68 = load i32, ptr %67, align 4, !tbaa !3
  %69 = icmp ne i32 %68, 95
  br label %70

70:                                               ; preds = %66, %62, %58, %54, %50, %46, %42, %38, %34
  %71 = phi i1 [ false, %62 ], [ false, %58 ], [ false, %54 ], [ false, %50 ], [ false, %46 ], [ false, %42 ], [ false, %38 ], [ false, %34 ], [ %69, %66 ]
  %72 = xor i1 %71, true
  %73 = zext i1 %72 to i64
  %74 = call i64 @llvm.expect.i64(i64 %73, i64 0)
  %75 = icmp ne i64 %74, 0
  br i1 %75, label %76, label %86

76:                                               ; preds = %70
  call void @llvm.lifetime.start.p0(i64 8, ptr %10) #7
  %77 = call ptr @__errno_location() #8
  %78 = load i32, ptr %77, align 4, !tbaa !3
  %79 = call ptr @strerror(i32 noundef %78) #7
  store ptr %79, ptr %10, align 8, !tbaa !11
  %80 = load ptr, ptr @stderr, align 8, !tbaa !13
  %81 = load ptr, ptr %10, align 8, !tbaa !11
  %82 = call i32 (ptr, ptr, ...) @fprintf(ptr noundef %80, ptr noundef @.str, ptr noundef %81, ptr noundef @.str.1, i32 noundef 230) #7
  %83 = load ptr, ptr @stderr, align 8, !tbaa !13
  %84 = call i32 @fflush(ptr noundef %83)
  %85 = load ptr, ptr %10, align 8, !tbaa !11
  call void @_ZN3zmq9zmq_abortEPKc(ptr noundef %85)
  call void @llvm.lifetime.end.p0(i64 8, ptr %10) #7
  br label %86

86:                                               ; preds = %76, %70
  br label %87

87:                                               ; preds = %86
  br label %88

88:                                               ; preds = %87
  store i32 -1, ptr %4, align 4
  store i32 1, ptr %9, align 4
  br label %92

89:                                               ; preds = %30
  %90 = load i64, ptr %8, align 8, !tbaa !9
  %91 = trunc i64 %90 to i32
  store i32 %91, ptr %4, align 4
  store i32 1, ptr %9, align 4
  br label %92

92:                                               ; preds = %89, %88, %29
  call void @llvm.lifetime.end.p0(i64 8, ptr %8) #7
  %93 = load i32, ptr %4, align 4
  ret i32 %93
}