; Function Attrs: mustprogress uwtable
define noundef i32 @_ZN3zmq9tcp_writeEiPKvm(i32 noundef %0, ptr noundef %1, i64 noundef %2) local_unnamed_addr #0 {
  %4 = tail call i64 @send(i32 noundef %0, ptr noundef %1, i64 noundef %2, i32 noundef 0)
  %5 = icmp eq i64 %4, -1
  br i1 %5, label %6, label %.critedge

6:                                                ; preds = %3
  %7 = tail call ptr @__errno_location() #8
  %8 = load i32, ptr %7, align 4, !tbaa !3
  switch i32 %8, label %.fold.split [
    i32 11, label %15
    i32 4, label %15
    i32 13, label %.critedge19
    i32 9, label %.critedge19
    i32 89, label %.critedge19
    i32 14, label %.critedge19
    i32 106, label %.critedge19
    i32 90, label %.critedge19
    i32 12, label %.critedge19
    i32 88, label %.critedge19
    i32 95, label %.critedge19
  ], !prof !7

.critedge19:                                      ; preds = %6, %6, %6, %6, %6, %6, %6, %6, %6
  %9 = tail call ptr @strerror(i32 noundef %8) #7
  %10 = load ptr, ptr @stderr, align 8, !tbaa !8
  %11 = tail call i32 (ptr, ptr, ...) @fprintf(ptr noundef %10, ptr noundef nonnull @.str, ptr noundef %9, ptr noundef nonnull @.str.1, i32 noundef 230) #9
  %12 = load ptr, ptr @stderr, align 8, !tbaa !8
  %13 = tail call i32 @fflush(ptr noundef %12)
  tail call void @_ZN3zmq9zmq_abortEPKc(ptr noundef %9)
  br label %15

.critedge:                                        ; preds = %3
  %14 = trunc i64 %4 to i32
  br label %15

.fold.split:                                      ; preds = %6
  br label %15

15:                                               ; preds = %6, %6, %.fold.split, %.critedge19, %.critedge
  %.0 = phi i32 [ %14, %.critedge ], [ 0, %6 ], [ 0, %6 ], [ -1, %.critedge19 ], [ -1, %.fold.split ]
  ret i32 %.0
}